Certificate:
    Data:
        Version: 3 (0x2)
        Serial Number: 1 (0x1)
        Signature Algorithm: sha256WithRSAEncryption
        Issuer: CN=oai-mme.oai.svc.cluster.local, C=FR, ST=PACA, L=Aix, O=Eurecom, OU=CM
        Validity
            Not Before: Apr 16 17:02:34 2020 GMT
            Not After : Apr 16 17:02:34 2021 GMT
        Subject: C=FR, ST=PACA, O=Eurecom, OU=CM, CN=oai-mme.oai.svc.cluster.local
        Subject Public Key Info:
            Public Key Algorithm: rsaEncryption
                RSA Public-Key: (1024 bit)
                Modulus:
                    00:d1:49:09:e1:8b:f0:a2:e1:84:54:ad:79:1e:4f:
                    6c:75:43:83:d8:f3:23:99:0e:8d:bf:24:1c:3d:70:
                    17:5a:df:ee:a9:bd:d1:03:63:09:69:d3:37:90:65:
                    d9:fb:1d:cb:0b:bc:82:2f:6f:8e:3d:65:38:cd:37:
                    ca:17:2e:a2:61:c0:c2:0a:39:20:1f:8f:54:10:bf:
                    7a:b7:02:f0:4c:3e:58:dc:07:a0:cf:29:08:72:59:
                    77:bb:2d:8b:34:d1:7f:95:2f:6b:25:d1:f8:19:8f:
                    5d:58:fd:1e:ec:68:dc:0a:e5:81:9b:40:04:61:41:
                    97:2b:d4:a9:f0:68:b8:bc:9b
                Exponent: 65537 (0x10001)
        X509v3 extensions:
            X509v3 Basic Constraints: 
                CA:FALSE
            Netscape Comment: 
                OpenSSL Generated Certificate
            X509v3 Subject Key Identifier: 
                3E:3D:CA:05:1D:B9:07:3B:79:66:10:21:61:54:DD:8D:5C:BF:5D:B6
            X509v3 Authority Key Identifier: 
                keyid:D1:96:6D:38:5C:14:CA:0C:08:5C:31:B7:A2:33:88:D0:FA:35:5B:85

    Signature Algorithm: sha256WithRSAEncryption
         72:ee:3d:0c:a2:80:09:62:d2:d6:55:be:28:7f:b4:ed:68:cd:
         b2:41:eb:47:5b:c9:1e:14:f6:62:8e:4d:bd:a0:20:69:8d:a0:
         a8:61:8c:a7:f7:4a:be:60:a2:37:16:cc:a0:5c:72:de:0f:97:
         aa:a6:a1:7c:80:d0:87:c3:a7:60:5f:5d:58:96:60:54:60:4e:
         c5:d6:15:be:af:94:3f:30:6f:ad:6a:e8:61:75:ad:ae:ff:59:
         08:01:94:da:8b:f4:4e:80:da:e9:d6:99:8f:d6:56:bd:b2:38:
         93:a5:09:9e:61:5c:ea:03:3c:2a:13:0b:45:f1:55:ef:39:31:
         9a:44
-----BEGIN CERTIFICATE-----
MIICxTCCAi6gAwIBAgIBATANBgkqhkiG9w0BAQsFADBxMSYwJAYDVQQDDB1vYWkt
bW1lLm9haS5zdmMuY2x1c3Rlci5sb2NhbDELMAkGA1UEBhMCRlIxDTALBgNVBAgM
BFBBQ0ExDDAKBgNVBAcMA0FpeDEQMA4GA1UECgwHRXVyZWNvbTELMAkGA1UECwwC
Q00wHhcNMjAwNDE2MTcwMjM0WhcNMjEwNDE2MTcwMjM0WjBjMQswCQYDVQQGEwJG
UjENMAsGA1UECAwEUEFDQTEQMA4GA1UECgwHRXVyZWNvbTELMAkGA1UECwwCQ00x
JjAkBgNVBAMMHW9haS1tbWUub2FpLnN2Yy5jbHVzdGVyLmxvY2FsMIGfMA0GCSqG
SIb3DQEBAQUAA4GNADCBiQKBgQDRSQnhi/Ci4YRUrXkeT2x1Q4PY8yOZDo2/JBw9
cBda3+6pvdEDYwlp0zeQZdn7HcsLvIIvb449ZTjNN8oXLqJhwMIKOSAfj1QQv3q3
AvBMPljcB6DPKQhyWXe7LYs00X+VL2sl0fgZj11Y/R7saNwK5YGbQARhQZcr1Knw
aLi8mwIDAQABo3sweTAJBgNVHRMEAjAAMCwGCWCGSAGG+EIBDQQfFh1PcGVuU1NM
IEdlbmVyYXRlZCBDZXJ0aWZpY2F0ZTAdBgNVHQ4EFgQUPj3KBR25Bzt5ZhAhYVTd
jVy/XbYwHwYDVR0jBBgwFoAU0ZZtOFwUygwIXDG3ojOI0Po1W4UwDQYJKoZIhvcN
AQELBQADgYEAcu49DKKACWLS1lW+KH+07WjNskHrR1vJHhT2Yo5NvaAgaY2gqGGM
p/dKvmCiNxbMoFxy3g+XqqahfIDQh8OnYF9dWJZgVGBOxdYVvq+UPzBvrWroYXWt
rv9ZCAGU2ov0ToDa6daZj9ZWvbI4k6UJnmFc6gM8KhMLRfFV7zkxmkQ=
-----END CERTIFICATE-----
