Certificate:
    Data:
        Version: 3 (0x2)
        Serial Number: 1 (0x1)
        Signature Algorithm: sha256WithRSAEncryption
        Issuer: CN=oai-hss.oai.svc.cluster.local, C=FR, ST=PACA, L=Aix, O=Eurecom, OU=CM
        Validity
            Not Before: Apr 16 16:58:46 2020 GMT
            Not After : Apr 16 16:58:46 2021 GMT
        Subject: C=FR, ST=PACA, O=Eurecom, OU=CM, CN=oai-hss.oai.svc.cluster.local
        Subject Public Key Info:
            Public Key Algorithm: rsaEncryption
                RSA Public-Key: (1024 bit)
                Modulus:
                    00:de:b6:e6:98:a7:f9:23:e2:98:43:7a:6d:04:f2:
                    b1:58:51:06:a2:97:5b:e4:60:dd:54:8d:c3:e6:d7:
                    4a:6d:84:99:1a:35:ad:ef:7a:b1:fd:e6:45:1f:fb:
                    63:50:ac:ce:9f:da:cd:24:d6:cf:e3:76:61:e6:8f:
                    86:8b:a7:69:02:fa:5d:b8:2e:3e:d1:43:3b:e2:f2:
                    0a:a0:41:1a:f0:ca:88:fa:23:fc:3f:22:86:13:fd:
                    87:44:08:42:56:fb:ee:4d:02:fd:6e:70:c6:e7:fa:
                    63:fe:5d:07:25:50:e4:c8:78:51:0b:67:28:2a:22:
                    74:dd:e0:d5:f7:cb:07:b1:03
                Exponent: 65537 (0x10001)
        X509v3 extensions:
            X509v3 Basic Constraints: 
                CA:FALSE
            Netscape Comment: 
                OpenSSL Generated Certificate
            X509v3 Subject Key Identifier: 
                0C:CC:92:02:73:2E:34:FF:88:4A:58:39:BD:6E:82:AA:D3:A0:78:A5
            X509v3 Authority Key Identifier: 
                keyid:E8:D9:F7:F2:71:57:16:A9:3A:3A:25:43:13:D0:4F:02:49:3C:F9:DD

    Signature Algorithm: sha256WithRSAEncryption
         be:b9:e6:52:2f:87:af:4b:ca:d8:bb:9b:c7:c0:0a:52:19:ab:
         b8:00:1e:96:9d:93:bf:30:ff:ce:18:d7:35:4b:b9:3c:0c:b8:
         cf:e8:4e:78:38:0d:cc:c0:dc:6d:33:6e:42:10:2e:c2:05:29:
         7f:c7:bd:c1:fd:32:1f:ee:a5:99:cd:4c:de:b9:f7:50:ec:14:
         55:3b:25:a9:5b:89:54:a6:39:30:c3:16:76:44:2a:2d:dd:32:
         7d:b9:32:96:96:62:98:70:c6:1e:1e:85:4b:19:08:4b:3d:3d:
         72:db:f7:e2:18:ef:b1:f3:c8:90:a4:d3:a3:35:37:b7:03:8b:
         0e:80
-----BEGIN CERTIFICATE-----
MIICxTCCAi6gAwIBAgIBATANBgkqhkiG9w0BAQsFADBxMSYwJAYDVQQDDB1vYWkt
aHNzLm9haS5zdmMuY2x1c3Rlci5sb2NhbDELMAkGA1UEBhMCRlIxDTALBgNVBAgM
BFBBQ0ExDDAKBgNVBAcMA0FpeDEQMA4GA1UECgwHRXVyZWNvbTELMAkGA1UECwwC
Q00wHhcNMjAwNDE2MTY1ODQ2WhcNMjEwNDE2MTY1ODQ2WjBjMQswCQYDVQQGEwJG
UjENMAsGA1UECAwEUEFDQTEQMA4GA1UECgwHRXVyZWNvbTELMAkGA1UECwwCQ00x
JjAkBgNVBAMMHW9haS1oc3Mub2FpLnN2Yy5jbHVzdGVyLmxvY2FsMIGfMA0GCSqG
SIb3DQEBAQUAA4GNADCBiQKBgQDetuaYp/kj4phDem0E8rFYUQail1vkYN1UjcPm
10pthJkaNa3verH95kUf+2NQrM6f2s0k1s/jdmHmj4aLp2kC+l24Lj7RQzvi8gqg
QRrwyoj6I/w/IoYT/YdECEJW++5NAv1ucMbn+mP+XQclUOTIeFELZygqInTd4NX3
ywexAwIDAQABo3sweTAJBgNVHRMEAjAAMCwGCWCGSAGG+EIBDQQfFh1PcGVuU1NM
IEdlbmVyYXRlZCBDZXJ0aWZpY2F0ZTAdBgNVHQ4EFgQUDMySAnMuNP+ISlg5vW6C
qtOgeKUwHwYDVR0jBBgwFoAU6Nn38nFXFqk6OiVDE9BPAkk8+d0wDQYJKoZIhvcN
AQELBQADgYEAvrnmUi+Hr0vK2Lubx8AKUhmruAAelp2TvzD/zhjXNUu5PAy4z+hO
eDgNzMDcbTNuQhAuwgUpf8e9wf0yH+6lmc1M3rn3UOwUVTslqVuJVKY5MMMWdkQq
Ld0yfbkylpZimHDGHh6FSxkISz09ctv34hjvsfPIkKTTozU3twOLDoA=
-----END CERTIFICATE-----
